; Function Attrs: nounwind uwtable
define noundef i32 @zend_get_attribute_value(ptr noundef %0, ptr nocapture noundef readonly %1, i32 noundef %2, ptr noundef %3) local_unnamed_addr #0 {
  %5 = getelementptr inbounds i8, ptr %1, i64 28
  %6 = load i32, ptr %5, align 4
  %.not = icmp ugt i32 %6, %2
  br i1 %.not, label %7, label %33

7:                                                ; preds = %4
  %8 = getelementptr inbounds i8, ptr %1, i64 32
  %9 = zext i32 %2 to i64
  %10 = getelementptr inbounds [1 x %struct.zend_attribute_arg], ptr %8, i64 0, i64 %9, i32 1
  %11 = load ptr, ptr %10, align 8
  %12 = getelementptr inbounds i8, ptr %10, i64 8
  %13 = load i32, ptr %12, align 8
  store ptr %11, ptr %0, align 8
  %14 = getelementptr inbounds i8, ptr %0, i64 8
  store i32 %13, ptr %14, align 8
  %15 = and i32 %13, 65280
  %.not25 = icmp eq i32 %15, 0
  br i1 %.not25, label %27, label %16

16:                                               ; preds = %7
  %17 = getelementptr inbounds i8, ptr %11, i64 4
  %18 = load i32, ptr %17, align 4
  %19 = and i32 %18, 128
  %.not26 = icmp eq i32 %19, 0
  %20 = and i32 %18, 15
  %21 = icmp eq i32 %20, 8
  %22 = or i1 %.not26, %21
  br i1 %22, label %23, label %26

23:                                               ; preds = %16
  %24 = load i32, ptr %11, align 4
  %25 = add i32 %24, 1
  store i32 %25, ptr %11, align 4
  br label %27

26:                                               ; preds = %16
  tail call void @zval_copy_ctor_func(ptr noundef nonnull %0) #16
  br label %27

27:                                               ; preds = %7, %26, %23
  %28 = load i8, ptr %14, align 8
  %29 = icmp eq i8 %28, 11
  br i1 %29, label %30, label %33

30:                                               ; preds = %27
  %31 = tail call i32 @zval_update_constant_ex(ptr noundef nonnull %0, ptr noundef %3) #16
  %.not27 = icmp eq i32 %31, 0
  br i1 %.not27, label %33, label %32

32:                                               ; preds = %30
  tail call void @zval_ptr_dtor(ptr noundef nonnull %0) #16
  br label %33

33:                                               ; preds = %27, %30, %4, %32
  %.0 = phi i32 [ -1, %32 ], [ -1, %4 ], [ 0, %30 ], [ 0, %27 ]
  ret i32 %.0
}